target datalayout = "e-m:e-p270:32:32-p271:32:32-p272:64:64-i64:64-i128:128-f80:128-n8:16:32:64-S128"
target triple = "x86_64-pc-linux-gnu"

%struct.mbedtls_x509write_cert = type { i32, [20 x i8], i64, ptr, ptr, ptr, ptr, i32, [16 x i8], [16 x i8], ptr }

@.str.6 = private unnamed_addr constant [4 x i8] c"U\1D#\00", align 1
@.str.7 = private unnamed_addr constant [4 x i8] c"U\1D\0E\00", align 1

; Function Attrs: nounwind uwtable
define hidden i32 @mbedtls_x509write_crt_set_extension(ptr noundef %0, ptr noundef %1, i64 noundef %2, i32 noundef %3, ptr noundef %4, i64 noundef %5) #0 {
  %7 = alloca ptr, align 8
  %8 = alloca ptr, align 8
  %9 = alloca i64, align 8
  %10 = alloca i32, align 4
  %11 = alloca ptr, align 8
  %12 = alloca i64, align 8
  store ptr %0, ptr %7, align 8, !tbaa !3
  store ptr %1, ptr %8, align 8, !tbaa !19
  store i64 %2, ptr %9, align 8, !tbaa !23
  store i32 %3, ptr %10, align 4, !tbaa !14
  store ptr %4, ptr %11, align 8, !tbaa !19
  store i64 %5, ptr %12, align 8, !tbaa !23
  %13 = load ptr, ptr %7, align 8, !tbaa !3
  %14 = getelementptr inbounds nuw %struct.mbedtls_x509write_cert, ptr %13, i32 0, i32 10
  %15 = load ptr, ptr %8, align 8, !tbaa !19
  %16 = load i64, ptr %9, align 8, !tbaa !23
  %17 = load i32, ptr %10, align 4, !tbaa !14
  %18 = load ptr, ptr %11, align 8, !tbaa !19
  %19 = load i64, ptr %12, align 8, !tbaa !23
  %20 = call i32 @mbedtls_x509_set_extension(ptr noundef %14, ptr noundef %15, i64 noundef %16, i32 noundef %17, ptr noundef %18, i64 noundef %19)
  ret i32 %20
}

; Function Attrs: nounwind uwtable
define internal i32 @mbedtls_x509write_crt_set_key_identifier(ptr noundef %0, i32 noundef %1, i8 noundef zeroext %2) #0 {
  %4 = alloca i32, align 4
  %5 = alloca ptr, align 8
  %6 = alloca i32, align 4
  %7 = alloca i8, align 1
  %8 = alloca i32, align 4
  %9 = alloca [2068 x i8], align 16
  %10 = alloca ptr, align 8
  %11 = alloca i64, align 8
  %12 = alloca i32, align 4
  store ptr %0, ptr %5, align 8, !tbaa !3
  store i32 %1, ptr %6, align 4, !tbaa !14
  store i8 %2, ptr %7, align 1, !tbaa !25
  call void @llvm.lifetime.start.p0(i64 4, ptr %8) #8
  store i32 -110, ptr %8, align 4, !tbaa !14
  call void @llvm.lifetime.start.p0(i64 2068, ptr %9) #8
  call void @llvm.lifetime.start.p0(i64 8, ptr %10) #8
  %13 = getelementptr inbounds [2068 x i8], ptr %9, i64 0, i64 0
  %14 = getelementptr inbounds nuw i8, ptr %13, i64 2068
  store ptr %14, ptr %10, align 8, !tbaa !19
  call void @llvm.lifetime.start.p0(i64 8, ptr %11) #8
  store i64 0, ptr %11, align 8, !tbaa !23
  %15 = getelementptr inbounds [2068 x i8], ptr %9, i64 0, i64 0
  call void @llvm.memset.p0.i64(ptr align 16 %15, i8 0, i64 2068, i1 false)
  br label %16

16:                                               ; preds = %3
  %17 = getelementptr inbounds [2068 x i8], ptr %9, i64 0, i64 0
  %18 = load i32, ptr %6, align 4, !tbaa !14
  %19 = icmp ne i32 %18, 0
  br i1 %19, label %20, label %24

20:                                               ; preds = %16
  %21 = load ptr, ptr %5, align 8, !tbaa !3
  %22 = getelementptr inbounds nuw %struct.mbedtls_x509write_cert, ptr %21, i32 0, i32 4
  %23 = load ptr, ptr %22, align 8, !tbaa !18
  br label %28

24:                                               ; preds = %16
  %25 = load ptr, ptr %5, align 8, !tbaa !3
  %26 = getelementptr inbounds nuw %struct.mbedtls_x509write_cert, ptr %25, i32 0, i32 3
  %27 = load ptr, ptr %26, align 8, !tbaa !17
  br label %28

28:                                               ; preds = %24, %20
  %29 = phi ptr [ %23, %20 ], [ %27, %24 ]
  %30 = call i32 @mbedtls_pk_write_pubkey(ptr noundef %10, ptr noundef %17, ptr noundef %29)
  store i32 %30, ptr %8, align 4, !tbaa !14
  %31 = icmp slt i32 %30, 0
  br i1 %31, label %32, label %34

32:                                               ; preds = %28
  %33 = load i32, ptr %8, align 4, !tbaa !14
  store i32 %33, ptr %4, align 4
  store i32 1, ptr %12, align 4
  br label %144

34:                                               ; preds = %28
  %35 = load i32, ptr %8, align 4, !tbaa !14
  %36 = sext i32 %35 to i64
  %37 = load i64, ptr %11, align 8, !tbaa !23
  %38 = add i64 %37, %36
  store i64 %38, ptr %11, align 8, !tbaa !23
  br label %39

39:                                               ; preds = %34
  br label %40

40:                                               ; preds = %39
  br label %41

41:                                               ; preds = %40
  %42 = call ptr @mbedtls_md_info_from_type(i32 noundef 5)
  %43 = getelementptr inbounds [2068 x i8], ptr %9, i64 0, i64 0
  %44 = getelementptr inbounds nuw i8, ptr %43, i64 2068
  %45 = load i64, ptr %11, align 8, !tbaa !23
  %46 = sub i64 0, %45
  %47 = getelementptr inbounds i8, ptr %44, i64 %46
  %48 = load i64, ptr %11, align 8, !tbaa !23
  %49 = getelementptr inbounds [2068 x i8], ptr %9, i64 0, i64 0
  %50 = getelementptr inbounds nuw i8, ptr %49, i64 2068
  %51 = getelementptr inbounds i8, ptr %50, i64 -20
  %52 = call i32 @mbedtls_md(ptr noundef %42, ptr noundef %47, i64 noundef %48, ptr noundef %51)
  store i32 %52, ptr %8, align 4, !tbaa !14
  %53 = load i32, ptr %8, align 4, !tbaa !14
  %54 = icmp ne i32 %53, 0
  br i1 %54, label %55, label %57

55:                                               ; preds = %41
  %56 = load i32, ptr %8, align 4, !tbaa !14
  store i32 %56, ptr %4, align 4
  store i32 1, ptr %12, align 4
  br label %144

57:                                               ; preds = %41
  %58 = getelementptr inbounds [2068 x i8], ptr %9, i64 0, i64 0
  %59 = getelementptr inbounds nuw i8, ptr %58, i64 2068
  %60 = getelementptr inbounds i8, ptr %59, i64 -20
  store ptr %60, ptr %10, align 8, !tbaa !19
  store i64 20, ptr %11, align 8, !tbaa !23
  br label %61

61:                                               ; preds = %57
  %62 = getelementptr inbounds [2068 x i8], ptr %9, i64 0, i64 0
  %63 = load i64, ptr %11, align 8, !tbaa !23
  %64 = call i32 @mbedtls_asn1_write_len(ptr noundef %10, ptr noundef %62, i64 noundef %63)
  store i32 %64, ptr %8, align 4, !tbaa !14
  %65 = icmp slt i32 %64, 0
  br i1 %65, label %66, label %68

66:                                               ; preds = %61
  %67 = load i32, ptr %8, align 4, !tbaa !14
  store i32 %67, ptr %4, align 4
  store i32 1, ptr %12, align 4
  br label %144

68:                                               ; preds = %61
  %69 = load i32, ptr %8, align 4, !tbaa !14
  %70 = sext i32 %69 to i64
  %71 = load i64, ptr %11, align 8, !tbaa !23
  %72 = add i64 %71, %70
  store i64 %72, ptr %11, align 8, !tbaa !23
  br label %73

73:                                               ; preds = %68
  br label %74

74:                                               ; preds = %73
  br label %75

75:                                               ; preds = %74
  br label %76

76:                                               ; preds = %75
  %77 = getelementptr inbounds [2068 x i8], ptr %9, i64 0, i64 0
  %78 = load i8, ptr %7, align 1, !tbaa !25
  %79 = call i32 @mbedtls_asn1_write_tag(ptr noundef %10, ptr noundef %77, i8 noundef zeroext %78)
  store i32 %79, ptr %8, align 4, !tbaa !14
  %80 = icmp slt i32 %79, 0
  br i1 %80, label %81, label %83

81:                                               ; preds = %76
  %82 = load i32, ptr %8, align 4, !tbaa !14
  store i32 %82, ptr %4, align 4
  store i32 1, ptr %12, align 4
  br label %144

83:                                               ; preds = %76
  %84 = load i32, ptr %8, align 4, !tbaa !14
  %85 = sext i32 %84 to i64
  %86 = load i64, ptr %11, align 8, !tbaa !23
  %87 = add i64 %86, %85
  store i64 %87, ptr %11, align 8, !tbaa !23
  br label %88

88:                                               ; preds = %83
  br label %89

89:                                               ; preds = %88
  br label %90

90:                                               ; preds = %89
  %91 = load i32, ptr %6, align 4, !tbaa !14
  %92 = icmp ne i32 %91, 0
  br i1 %92, label %93, label %123

93:                                               ; preds = %90
  br label %94

94:                                               ; preds = %93
  %95 = getelementptr inbounds [2068 x i8], ptr %9, i64 0, i64 0
  %96 = load i64, ptr %11, align 8, !tbaa !23
  %97 = call i32 @mbedtls_asn1_write_len(ptr noundef %10, ptr noundef %95, i64 noundef %96)
  store i32 %97, ptr %8, align 4, !tbaa !14
  %98 = icmp slt i32 %97, 0
  br i1 %98, label %99, label %101

99:                                               ; preds = %94
  %100 = load i32, ptr %8, align 4, !tbaa !14
  store i32 %100, ptr %4, align 4
  store i32 1, ptr %12, align 4
  br label %144

101:                                              ; preds = %94
  %102 = load i32, ptr %8, align 4, !tbaa !14
  %103 = sext i32 %102 to i64
  %104 = load i64, ptr %11, align 8, !tbaa !23
  %105 = add i64 %104, %103
  store i64 %105, ptr %11, align 8, !tbaa !23
  br label %106

106:                                              ; preds = %101
  br label %107

107:                                              ; preds = %106
  br label %108

108:                                              ; preds = %107
  br label %109

109:                                              ; preds = %108
  %110 = getelementptr inbounds [2068 x i8], ptr %9, i64 0, i64 0
  %111 = call i32 @mbedtls_asn1_write_tag(ptr noundef %10, ptr noundef %110, i8 noundef zeroext 48)
  store i32 %111, ptr %8, align 4, !tbaa !14
  %112 = icmp slt i32 %111, 0
  br i1 %112, label %113, label %115

113:                                              ; preds = %109
  %114 = load i32, ptr %8, align 4, !tbaa !14
  store i32 %114, ptr %4, align 4
  store i32 1, ptr %12, align 4
  br label %144

115:                                              ; preds = %109
  %116 = load i32, ptr %8, align 4, !tbaa !14
  %117 = sext i32 %116 to i64
  %118 = load i64, ptr %11, align 8, !tbaa !23
  %119 = add i64 %118, %117
  store i64 %119, ptr %11, align 8, !tbaa !23
  br label %120

120:                                              ; preds = %115
  br label %121

121:                                              ; preds = %120
  br label %122

122:                                              ; preds = %121
  br label %123

123:                                              ; preds = %122, %90
  %124 = load i32, ptr %6, align 4, !tbaa !14
  %125 = icmp ne i32 %124, 0
  br i1 %125, label %126, label %135

126:                                              ; preds = %123
  %127 = load ptr, ptr %5, align 8, !tbaa !3
  %128 = getelementptr inbounds [2068 x i8], ptr %9, i64 0, i64 0
  %129 = getelementptr inbounds nuw i8, ptr %128, i64 2068
  %130 = load i64, ptr %11, align 8, !tbaa !23
  %131 = sub i64 0, %130
  %132 = getelementptr inbounds i8, ptr %129, i64 %131
  %133 = load i64, ptr %11, align 8, !tbaa !23
  %134 = call i32 @mbedtls_x509write_crt_set_extension(ptr noundef %127, ptr noundef @.str.6, i64 noundef 3, i32 noundef 0, ptr noundef %132, i64 noundef %133)
  store i32 %134, ptr %4, align 4
  store i32 1, ptr %12, align 4
  br label %144

135:                                              ; preds = %123
  %136 = load ptr, ptr %5, align 8, !tbaa !3
  %137 = getelementptr inbounds [2068 x i8], ptr %9, i64 0, i64 0
  %138 = getelementptr inbounds nuw i8, ptr %137, i64 2068
  %139 = load i64, ptr %11, align 8, !tbaa !23
  %140 = sub i64 0, %139
  %141 = getelementptr inbounds i8, ptr %138, i64 %140
  %142 = load i64, ptr %11, align 8, !tbaa !23
  %143 = call i32 @mbedtls_x509write_crt_set_extension(ptr noundef %136, ptr noundef @.str.7, i64 noundef 3, i32 noundef 0, ptr noundef %141, i64 noundef %142)
  store i32 %143, ptr %4, align 4
  store i32 1, ptr %12, align 4
  br label %144

144:                                              ; preds = %135, %126, %113, %99, %81, %66, %55, %32
  call void @llvm.lifetime.end.p0(i64 8, ptr %11) #8
  call void @llvm.lifetime.end.p0(i64 8, ptr %10) #8
  call void @llvm.lifetime.end.p0(i64 2068, ptr %9) #8
  call void @llvm.lifetime.end.p0(i64 4, ptr %8) #8
  %145 = load i32, ptr %4, align 4
  ret i32 %145
}