; Function Attrs: nounwind uwtable
define internal fastcc i32 @mbedtls_x509write_crt_set_key_identifier(ptr noundef %0, i32 noundef range(i32 0, 2) %1, i8 noundef zeroext range(i8 4, -127) %2) unnamed_addr #2 {
  %4 = alloca [2068 x i8], align 16
  %5 = alloca ptr, align 8
  call void @llvm.lifetime.start.p0(i64 2068, ptr nonnull %4) #11
  call void @llvm.lifetime.start.p0(i64 8, ptr nonnull %5) #11
  %6 = getelementptr inbounds nuw i8, ptr %4, i64 2068
  store ptr %6, ptr %5, align 8, !tbaa !17
  call void @llvm.memset.p0.i64(ptr noundef nonnull align 16 dereferenceable(2068) %4, i8 0, i64 2068, i1 false)
  %.not = icmp eq i32 %1, 0
  %.in.v = select i1 %.not, i64 32, i64 40
  %.in = getelementptr inbounds nuw i8, ptr %0, i64 %.in.v
  %7 = load ptr, ptr %.in, align 8, !tbaa !19
  %8 = call i32 @mbedtls_pk_write_pubkey(ptr noundef nonnull %5, ptr noundef nonnull %4, ptr noundef %7) #11
  %9 = icmp slt i32 %8, 0
  br i1 %9, label %47, label %10

10:                                               ; preds = %3
  %11 = zext nneg i32 %8 to i64
  %12 = call ptr @mbedtls_md_info_from_type(i32 noundef 5) #11
  %13 = sub nsw i64 0, %11
  %14 = getelementptr inbounds i8, ptr %6, i64 %13
  %15 = getelementptr inbounds nuw i8, ptr %4, i64 2048
  %16 = call i32 @mbedtls_md(ptr noundef %12, ptr noundef nonnull %14, i64 noundef %11, ptr noundef nonnull %15) #11
  %.not44 = icmp eq i32 %16, 0
  br i1 %.not44, label %17, label %47

17:                                               ; preds = %10
  store ptr %15, ptr %5, align 8, !tbaa !17
  %18 = call i32 @mbedtls_asn1_write_len(ptr noundef nonnull %5, ptr noundef nonnull %4, i64 noundef 20) #11
  %19 = icmp slt i32 %18, 0
  br i1 %19, label %47, label %20

20:                                               ; preds = %17
  %21 = call i32 @mbedtls_asn1_write_tag(ptr noundef nonnull %5, ptr noundef nonnull %4, i8 noundef zeroext %2) #11
  %22 = icmp slt i32 %21, 0
  br i1 %22, label %47, label %23

23:                                               ; preds = %20
  %narrow = add nuw i32 %18, 20
  %24 = zext i32 %narrow to i64
  %25 = zext nneg i32 %21 to i64
  %26 = add nuw nsw i64 %25, %24
  br i1 %.not, label %42, label %27

27:                                               ; preds = %23
  %28 = call i32 @mbedtls_asn1_write_len(ptr noundef nonnull %5, ptr noundef nonnull %4, i64 noundef %26) #11
  %29 = icmp slt i32 %28, 0
  br i1 %29, label %47, label %30

30:                                               ; preds = %27
  %31 = call i32 @mbedtls_asn1_write_tag(ptr noundef nonnull %5, ptr noundef nonnull %4, i8 noundef zeroext 48) #11
  %32 = icmp slt i32 %31, 0
  br i1 %32, label %47, label %33

33:                                               ; preds = %30
  %34 = zext nneg i32 %28 to i64
  %35 = add nuw nsw i64 %26, %34
  %36 = zext nneg i32 %31 to i64
  %37 = add nuw nsw i64 %35, %36
  %38 = sub nsw i64 0, %37
  %39 = getelementptr inbounds i8, ptr %6, i64 %38
  %40 = getelementptr inbounds nuw i8, ptr %0, i64 104
  %41 = call i32 @mbedtls_x509_set_extension(ptr noundef nonnull %40, ptr noundef nonnull @.str.6, i64 noundef 3, i32 noundef 0, ptr noundef nonnull %39, i64 noundef %37) #11
  br label %47

42:                                               ; preds = %23
  %43 = sub nsw i64 0, %26
  %44 = getelementptr inbounds i8, ptr %6, i64 %43
  %45 = getelementptr inbounds nuw i8, ptr %0, i64 104
  %46 = call i32 @mbedtls_x509_set_extension(ptr noundef nonnull %45, ptr noundef nonnull @.str.7, i64 noundef 3, i32 noundef 0, ptr noundef nonnull %44, i64 noundef %26) #11
  br label %47

47:                                               ; preds = %30, %27, %20, %17, %10, %3, %42, %33
  %.033 = phi i32 [ %41, %33 ], [ %46, %42 ], [ %8, %3 ], [ %16, %10 ], [ %18, %17 ], [ %21, %20 ], [ %28, %27 ], [ %31, %30 ]
  call void @llvm.lifetime.end.p0(i64 8, ptr nonnull %5) #11
  call void @llvm.lifetime.end.p0(i64 2068, ptr nonnull %4) #11
  ret i32 %.033
}